target datalayout = "e-m:e-p270:32:32-p271:32:32-p272:64:64-i64:64-i128:128-f80:128-n8:16:32:64-S128"
target triple = "x86_64-pc-linux-gnu"

%"struct.OpenColorIO_v2_5dev::NumberUtils::Locale" = type { ptr }
%"struct.OpenColorIO_v2_5dev::NumberUtils::from_chars_result" = type { ptr, i32 }

@_ZN19OpenColorIO_v2_5dev11NumberUtilsL3locE = internal global %"struct.OpenColorIO_v2_5dev::NumberUtils::Locale" zeroinitializer, align 8

; Function Attrs: alwaysinline mustprogress nounwind uwtable
define linkonce_odr hidden { ptr, i32 } @_ZN19OpenColorIO_v2_5dev11NumberUtils10from_charsEPKcS2_Rf(ptr noundef %0, ptr noundef %1, ptr noundef nonnull align 4 dereferenceable(4) %2) #10 comdat {
  %4 = alloca %"struct.OpenColorIO_v2_5dev::NumberUtils::from_chars_result", align 8
  %5 = alloca ptr, align 8
  %6 = alloca ptr, align 8
  %7 = alloca ptr, align 8
  %8 = alloca ptr, align 8
  %9 = alloca float, align 4
  %10 = alloca i32, align 4
  store ptr %0, ptr %5, align 8, !tbaa !21
  store ptr %1, ptr %6, align 8, !tbaa !21
  store ptr %2, ptr %7, align 8, !tbaa !92
  %11 = load ptr, ptr %5, align 8, !tbaa !21
  %12 = icmp ne ptr %11, null
  br i1 %12, label %13, label %20

13:                                               ; preds = %3
  %14 = load ptr, ptr %6, align 8, !tbaa !21
  %15 = icmp ne ptr %14, null
  br i1 %15, label %16, label %20

16:                                               ; preds = %13
  %17 = load ptr, ptr %5, align 8, !tbaa !21
  %18 = load ptr, ptr %6, align 8, !tbaa !21
  %19 = icmp eq ptr %17, %18
  br i1 %19, label %20, label %24

20:                                               ; preds = %16, %13, %3
  %21 = getelementptr inbounds nuw %"struct.OpenColorIO_v2_5dev::NumberUtils::from_chars_result", ptr %4, i32 0, i32 0
  %22 = load ptr, ptr %5, align 8, !tbaa !21
  store ptr %22, ptr %21, align 8, !tbaa !98
  %23 = getelementptr inbounds nuw %"struct.OpenColorIO_v2_5dev::NumberUtils::from_chars_result", ptr %4, i32 0, i32 1
  store i32 22, ptr %23, align 8, !tbaa !95
  br label %71

24:                                               ; preds = %16
  %25 = call ptr @__errno_location() #21
  store i32 0, ptr %25, align 4, !tbaa !29
  call void @llvm.lifetime.start.p0(i64 8, ptr %8) #3
  store ptr null, ptr %8, align 8, !tbaa !21
  call void @llvm.lifetime.start.p0(i64 4, ptr %9) #3
  %26 = load ptr, ptr %5, align 8, !tbaa !21
  %27 = load ptr, ptr @_ZN19OpenColorIO_v2_5dev11NumberUtilsL3locE, align 8, !tbaa !8
  %28 = call float @strtof_l(ptr noundef %26, ptr noundef %8, ptr noundef %27) #3
  store float %28, ptr %9, align 4, !tbaa !79
  %29 = call ptr @__errno_location() #21
  %30 = load i32, ptr %29, align 4, !tbaa !29
  %31 = icmp ne i32 %30, 0
  br i1 %31, label %32, label %42

32:                                               ; preds = %24
  %33 = getelementptr inbounds nuw %"struct.OpenColorIO_v2_5dev::NumberUtils::from_chars_result", ptr %4, i32 0, i32 0
  %34 = load ptr, ptr %5, align 8, !tbaa !21
  %35 = load ptr, ptr %8, align 8, !tbaa !21
  %36 = load ptr, ptr %5, align 8, !tbaa !21
  %37 = ptrtoint ptr %35 to i64
  %38 = ptrtoint ptr %36 to i64
  %39 = sub i64 %37, %38
  %40 = getelementptr inbounds i8, ptr %34, i64 %39
  store ptr %40, ptr %33, align 8, !tbaa !98
  %41 = getelementptr inbounds nuw %"struct.OpenColorIO_v2_5dev::NumberUtils::from_chars_result", ptr %4, i32 0, i32 1
  store i32 34, ptr %41, align 8, !tbaa !95
  store i32 1, ptr %10, align 4
  br label %70

42:                                               ; preds = %24
  %43 = load ptr, ptr %8, align 8, !tbaa !21
  %44 = load ptr, ptr %5, align 8, !tbaa !21
  %45 = icmp eq ptr %43, %44
  br i1 %45, label %46, label %50

46:                                               ; preds = %42
  %47 = getelementptr inbounds nuw %"struct.OpenColorIO_v2_5dev::NumberUtils::from_chars_result", ptr %4, i32 0, i32 0
  %48 = load ptr, ptr %5, align 8, !tbaa !21
  store ptr %48, ptr %47, align 8, !tbaa !98
  %49 = getelementptr inbounds nuw %"struct.OpenColorIO_v2_5dev::NumberUtils::from_chars_result", ptr %4, i32 0, i32 1
  store i32 22, ptr %49, align 8, !tbaa !95
  store i32 1, ptr %10, align 4
  br label %70

50:                                               ; preds = %42
  %51 = load ptr, ptr %8, align 8, !tbaa !21
  %52 = load ptr, ptr %6, align 8, !tbaa !21
  %53 = icmp ule ptr %51, %52
  br i1 %53, label %54, label %66

54:                                               ; preds = %50
  %55 = load float, ptr %9, align 4, !tbaa !79
  %56 = load ptr, ptr %7, align 8, !tbaa !92
  store float %55, ptr %56, align 4, !tbaa !79
  %57 = getelementptr inbounds nuw %"struct.OpenColorIO_v2_5dev::NumberUtils::from_chars_result", ptr %4, i32 0, i32 0
  %58 = load ptr, ptr %5, align 8, !tbaa !21
  %59 = load ptr, ptr %8, align 8, !tbaa !21
  %60 = load ptr, ptr %5, align 8, !tbaa !21
  %61 = ptrtoint ptr %59 to i64
  %62 = ptrtoint ptr %60 to i64
  %63 = sub i64 %61, %62
  %64 = getelementptr inbounds i8, ptr %58, i64 %63
  store ptr %64, ptr %57, align 8, !tbaa !98
  %65 = getelementptr inbounds nuw %"struct.OpenColorIO_v2_5dev::NumberUtils::from_chars_result", ptr %4, i32 0, i32 1
  store i32 0, ptr %65, align 8, !tbaa !95
  store i32 1, ptr %10, align 4
  br label %70

66:                                               ; preds = %50
  %67 = getelementptr inbounds nuw %"struct.OpenColorIO_v2_5dev::NumberUtils::from_chars_result", ptr %4, i32 0, i32 0
  %68 = load ptr, ptr %5, align 8, !tbaa !21
  store ptr %68, ptr %67, align 8, !tbaa !98
  %69 = getelementptr inbounds nuw %"struct.OpenColorIO_v2_5dev::NumberUtils::from_chars_result", ptr %4, i32 0, i32 1
  store i32 33, ptr %69, align 8, !tbaa !95
  store i32 1, ptr %10, align 4
  br label %70

70:                                               ; preds = %66, %54, %46, %32
  call void @llvm.lifetime.end.p0(i64 4, ptr %9) #3
  call void @llvm.lifetime.end.p0(i64 8, ptr %8) #3
  br label %71

71:                                               ; preds = %70, %20
  %72 = load { ptr, i32 }, ptr %4, align 8
  ret { ptr, i32 } %72
}

; Function Attrs: mustprogress nounwind uwtable
define hidden noundef zeroext i1 @_ZN19OpenColorIO_v2_5dev13StringToFloatEPfPKc(ptr noundef %0, ptr noundef %1) #4 {
  %3 = alloca i1, align 1
  %4 = alloca ptr, align 8
  %5 = alloca ptr, align 8
  %6 = alloca float, align 4
  %7 = alloca %"struct.OpenColorIO_v2_5dev::NumberUtils::from_chars_result", align 8
  %8 = alloca i32, align 4
  store ptr %0, ptr %4, align 8, !tbaa !92
  store ptr %1, ptr %5, align 8, !tbaa !21
  %9 = load ptr, ptr %5, align 8, !tbaa !21
  %10 = icmp ne ptr %9, null
  br i1 %10, label %12, label %11

11:                                               ; preds = %2
  store i1 false, ptr %3, align 1
  br label %35

12:                                               ; preds = %2
  call void @llvm.lifetime.start.p0(i64 4, ptr %6) #3
  store float 0x7FF8000000000000, ptr %6, align 4, !tbaa !79
  call void @llvm.lifetime.start.p0(i64 16, ptr %7) #3
  %13 = load ptr, ptr %5, align 8, !tbaa !21
  %14 = load ptr, ptr %5, align 8, !tbaa !21
  %15 = load ptr, ptr %5, align 8, !tbaa !21
  %16 = call i64 @strlen(ptr noundef %15) #20
  %17 = getelementptr inbounds nuw i8, ptr %14, i64 %16
  %18 = call { ptr, i32 } @_ZN19OpenColorIO_v2_5dev11NumberUtils10from_charsEPKcS2_Rf(ptr noundef %13, ptr noundef %17, ptr noundef nonnull align 4 dereferenceable(4) %6) #3
  %19 = getelementptr inbounds nuw { ptr, i32 }, ptr %7, i32 0, i32 0
  %20 = extractvalue { ptr, i32 } %18, 0
  store ptr %20, ptr %19, align 8
  %21 = getelementptr inbounds nuw { ptr, i32 }, ptr %7, i32 0, i32 1
  %22 = extractvalue { ptr, i32 } %18, 1
  store i32 %22, ptr %21, align 8
  %23 = getelementptr inbounds nuw %"struct.OpenColorIO_v2_5dev::NumberUtils::from_chars_result", ptr %7, i32 0, i32 1
  %24 = load i32, ptr %23, align 8, !tbaa !95
  %25 = icmp ne i32 %24, 0
  br i1 %25, label %26, label %27

26:                                               ; preds = %12
  store i1 false, ptr %3, align 1
  store i32 1, ptr %8, align 4
  br label %34

27:                                               ; preds = %12
  %28 = load ptr, ptr %4, align 8, !tbaa !92
  %29 = icmp ne ptr %28, null
  br i1 %29, label %30, label %33

30:                                               ; preds = %27
  %31 = load float, ptr %6, align 4, !tbaa !79
  %32 = load ptr, ptr %4, align 8, !tbaa !92
  store float %31, ptr %32, align 4, !tbaa !79
  br label %33

33:                                               ; preds = %30, %27
  store i1 true, ptr %3, align 1
  store i32 1, ptr %8, align 4
  br label %34

34:                                               ; preds = %33, %26
  call void @llvm.lifetime.end.p0(i64 16, ptr %7) #3
  call void @llvm.lifetime.end.p0(i64 4, ptr %6) #3
  br label %35

35:                                               ; preds = %34, %11
  %36 = load i1, ptr %3, align 1
  ret i1 %36
}