; Function Attrs: mustprogress nounwind uwtable
define hidden noundef zeroext i1 @_ZN19OpenColorIO_v2_5dev13StringToFloatEPfPKc(ptr noundef writeonly %0, ptr noundef %1) local_unnamed_addr #3 {
  %3 = alloca ptr, align 8
  %.not = icmp eq ptr %1, null
  br i1 %.not, label %_ZN19OpenColorIO_v2_5dev11NumberUtils10from_charsEPKcS2_Rf.exit.thread, label %4

4:                                                ; preds = %2
  %5 = tail call i64 @strlen(ptr noundef nonnull dereferenceable(1) %1) #28
  %6 = getelementptr inbounds nuw i8, ptr %1, i64 %5
  %7 = icmp samesign eq i64 %5, 0
  br i1 %7, label %_ZN19OpenColorIO_v2_5dev11NumberUtils10from_charsEPKcS2_Rf.exit.thread, label %8

8:                                                ; preds = %4
  %9 = tail call ptr @__errno_location() #29
  store i32 0, ptr %9, align 4, !tbaa !61
  call void @llvm.lifetime.start.p0(i64 8, ptr nonnull %3) #25
  store ptr null, ptr %3, align 8, !tbaa !62
  %10 = load ptr, ptr @_ZN19OpenColorIO_v2_5dev11NumberUtilsL3locE, align 8, !tbaa !3
  %11 = call float @strtof_l(ptr noundef nonnull %1, ptr noundef nonnull %3, ptr noundef %10) #25
  %12 = load i32, ptr %9, align 4, !tbaa !61
  %.not.i = icmp eq i32 %12, 0
  br i1 %.not.i, label %13, label %_ZN19OpenColorIO_v2_5dev11NumberUtils10from_charsEPKcS2_Rf.exit.thread22

13:                                               ; preds = %8
  %14 = load ptr, ptr %3, align 8, !tbaa !62
  %15 = icmp eq ptr %14, %1
  %.not19.i = icmp ugt ptr %14, %6
  %or.cond = select i1 %15, i1 true, i1 %.not19.i
  br i1 %or.cond, label %_ZN19OpenColorIO_v2_5dev11NumberUtils10from_charsEPKcS2_Rf.exit.thread22, label %_ZN19OpenColorIO_v2_5dev11NumberUtils10from_charsEPKcS2_Rf.exit

_ZN19OpenColorIO_v2_5dev11NumberUtils10from_charsEPKcS2_Rf.exit.thread22: ; preds = %13, %8
  call void @llvm.lifetime.end.p0(i64 8, ptr nonnull %3) #25
  br label %_ZN19OpenColorIO_v2_5dev11NumberUtils10from_charsEPKcS2_Rf.exit.thread

_ZN19OpenColorIO_v2_5dev11NumberUtils10from_charsEPKcS2_Rf.exit: ; preds = %13
  call void @llvm.lifetime.end.p0(i64 8, ptr nonnull %3) #25
  %.not10 = icmp eq ptr %0, null
  br i1 %.not10, label %_ZN19OpenColorIO_v2_5dev11NumberUtils10from_charsEPKcS2_Rf.exit.thread, label %16

16:                                               ; preds = %_ZN19OpenColorIO_v2_5dev11NumberUtils10from_charsEPKcS2_Rf.exit
  store float %11, ptr %0, align 4, !tbaa !58
  br label %_ZN19OpenColorIO_v2_5dev11NumberUtils10from_charsEPKcS2_Rf.exit.thread

_ZN19OpenColorIO_v2_5dev11NumberUtils10from_charsEPKcS2_Rf.exit.thread: ; preds = %4, %_ZN19OpenColorIO_v2_5dev11NumberUtils10from_charsEPKcS2_Rf.exit, %16, %_ZN19OpenColorIO_v2_5dev11NumberUtils10from_charsEPKcS2_Rf.exit.thread22, %2
  %.0 = phi i1 [ false, %2 ], [ true, %16 ], [ true, %_ZN19OpenColorIO_v2_5dev11NumberUtils10from_charsEPKcS2_Rf.exit ], [ false, %_ZN19OpenColorIO_v2_5dev11NumberUtils10from_charsEPKcS2_Rf.exit.thread22 ], [ false, %4 ]
  ret i1 %.0
}